target datalayout = "e-m:e-p270:32:32-p271:32:32-p272:64:64-i64:64-i128:128-f80:128-n8:16:32:64-S128"
target triple = "x86_64-pc-linux-gnu"

%struct.png_struct_def = type { [1 x %struct.__jmp_buf_tag], ptr, ptr, i64, ptr, ptr, ptr, ptr, ptr, ptr, ptr, ptr, ptr, i8, i8, i32, i32, i32, i32, %struct.z_stream_s, ptr, i32, i32, i32, i32, i32, i32, i32, i32, i32, i32, i32, i32, i32, i32, i32, i32, i32, i32, i32, i32, i64, i32, i32, i32, ptr, ptr, ptr, ptr, i64, i32, i32, ptr, i16, i32, i16, i8, i8, i8, i8, i8, i8, i8, i8, i8, i8, i8, i8, i8, i8, i8, i16, i8, i32, %struct.png_color_16_struct, %struct.png_color_16_struct, ptr, i32, i32, i32, i32, ptr, ptr, ptr, ptr, ptr, ptr, %struct.png_color_8_struct, %struct.png_color_8_struct, ptr, %struct.png_color_16_struct, ptr, ptr, ptr, ptr, ptr, ptr, ptr, ptr, ptr, i32, i32, i64, i64, i64, i64, i32, i32, ptr, ptr, i32, [29 x i8], i32, ptr, ptr, i32, i32, ptr, i8, i8, i16, i16, ptr, i32, i8, ptr, ptr, ptr, ptr, ptr, ptr, ptr, i8, i32, i32, i32, i64, %struct.png_unknown_chunk_t, i64, ptr, i64, i32, i32, ptr, [4 x ptr], %struct.png_colorspace }
%struct.__jmp_buf_tag = type { [8 x i64], i32, %struct.__sigset_t }
%struct.__sigset_t = type { [16 x i64] }
%struct.z_stream_s = type { ptr, i32, i64, ptr, i32, i64, ptr, ptr, ptr, ptr, ptr, i32, i64, i64 }
%struct.png_color_8_struct = type { i8, i8, i8, i8, i8 }
%struct.png_color_16_struct = type { i8, i16, i16, i16, i16 }
%struct.png_unknown_chunk_t = type { [5 x i8], ptr, i64, i8 }
%struct.png_colorspace = type { i32, %struct.png_xy, %struct.png_XYZ, i16, i16 }
%struct.png_xy = type { i32, i32, i32, i32, i32, i32, i32, i32 }
%struct.png_XYZ = type { i32, i32, i32, i32, i32, i32, i32, i32, i32 }
%struct.png_info_def = type { i32, i32, i32, i64, ptr, i16, i16, i8, i8, i8, i8, i8, i8, i8, i8, [8 x i8], %struct.png_colorspace, ptr, ptr, i32, i32, i32, ptr, %struct.png_time_struct, %struct.png_color_8_struct, ptr, %struct.png_color_16_struct, %struct.png_color_16_struct, i32, i32, i8, i32, i32, i8, i32, ptr, ptr, ptr, ptr, i32, i32, ptr, ptr, i8, i8, i32, ptr, i32, ptr, i32, i8, ptr, ptr, ptr }
%struct.png_time_struct = type { i16, i8, i8, i8, i8, i8 }

@.str = private unnamed_addr constant [49 x i8] c"MNG features are not allowed in a PNG datastream\00", align 1
@.str.1 = private unnamed_addr constant [46 x i8] c"profile matches sRGB but writing iCCP instead\00", align 1
@.str.22 = private unnamed_addr constant [34 x i8] c"Writing zero-length unknown chunk\00", align 1

; Function Attrs: nounwind uwtable
define internal void @write_unknown_chunks(ptr noalias noundef %0, ptr noalias noundef %1, i32 noundef %2) #0 {
  %4 = alloca ptr, align 8
  %5 = alloca ptr, align 8
  %6 = alloca i32, align 4
  %7 = alloca ptr, align 8
  %8 = alloca i32, align 4
  store ptr %0, ptr %4, align 8
  store ptr %1, ptr %5, align 8
  store i32 %2, ptr %6, align 4
  %9 = load ptr, ptr %5, align 8
  %10 = getelementptr inbounds %struct.png_info_def, ptr %9, i32 0, i32 47
  %11 = load i32, ptr %10, align 8
  %12 = icmp ne i32 %11, 0
  br i1 %12, label %13, label %87

13:                                               ; preds = %3
  %14 = load ptr, ptr %5, align 8
  %15 = getelementptr inbounds %struct.png_info_def, ptr %14, i32 0, i32 46
  %16 = load ptr, ptr %15, align 8
  store ptr %16, ptr %7, align 8
  br label %17

17:                                               ; preds = %83, %13
  %18 = load ptr, ptr %7, align 8
  %19 = load ptr, ptr %5, align 8
  %20 = getelementptr inbounds %struct.png_info_def, ptr %19, i32 0, i32 46
  %21 = load ptr, ptr %20, align 8
  %22 = load ptr, ptr %5, align 8
  %23 = getelementptr inbounds %struct.png_info_def, ptr %22, i32 0, i32 47
  %24 = load i32, ptr %23, align 8
  %25 = sext i32 %24 to i64
  %26 = getelementptr inbounds %struct.png_unknown_chunk_t, ptr %21, i64 %25
  %27 = icmp ult ptr %18, %26
  br i1 %27, label %28, label %86

28:                                               ; preds = %17
  %29 = load ptr, ptr %7, align 8
  %30 = getelementptr inbounds %struct.png_unknown_chunk_t, ptr %29, i32 0, i32 3
  %31 = load i8, ptr %30, align 8
  %32 = zext i8 %31 to i32
  %33 = load i32, ptr %6, align 4
  %34 = and i32 %32, %33
  %35 = icmp ne i32 %34, 0
  br i1 %35, label %36, label %82

36:                                               ; preds = %28
  %37 = load ptr, ptr %4, align 8
  %38 = load ptr, ptr %7, align 8
  %39 = getelementptr inbounds %struct.png_unknown_chunk_t, ptr %38, i32 0, i32 0
  %40 = getelementptr inbounds [5 x i8], ptr %39, i64 0, i64 0
  %41 = call i32 @png_handle_as_unknown(ptr noundef %37, ptr noundef %40)
  store i32 %41, ptr %8, align 4
  %42 = load i32, ptr %8, align 4
  %43 = icmp ne i32 %42, 1
  br i1 %43, label %44, label %81

44:                                               ; preds = %36
  %45 = load ptr, ptr %7, align 8
  %46 = getelementptr inbounds %struct.png_unknown_chunk_t, ptr %45, i32 0, i32 0
  %47 = getelementptr inbounds [5 x i8], ptr %46, i64 0, i64 3
  %48 = load i8, ptr %47, align 1
  %49 = zext i8 %48 to i32
  %50 = and i32 %49, 32
  %51 = icmp ne i32 %50, 0
  br i1 %51, label %63, label %52

52:                                               ; preds = %44
  %53 = load i32, ptr %8, align 4
  %54 = icmp eq i32 %53, 3
  br i1 %54, label %63, label %55

55:                                               ; preds = %52
  %56 = load i32, ptr %8, align 4
  %57 = icmp eq i32 %56, 0
  br i1 %57, label %58, label %81

58:                                               ; preds = %55
  %59 = load ptr, ptr %4, align 8
  %60 = getelementptr inbounds %struct.png_struct_def, ptr %59, i32 0, i32 115
  %61 = load i32, ptr %60, align 8
  %62 = icmp eq i32 %61, 3
  br i1 %62, label %63, label %81

63:                                               ; preds = %58, %52, %44
  %64 = load ptr, ptr %7, align 8
  %65 = getelementptr inbounds %struct.png_unknown_chunk_t, ptr %64, i32 0, i32 2
  %66 = load i64, ptr %65, align 8
  %67 = icmp eq i64 %66, 0
  br i1 %67, label %68, label %70

68:                                               ; preds = %63
  %69 = load ptr, ptr %4, align 8
  call void @png_warning(ptr noundef %69, ptr noundef @.str.22)
  br label %70

70:                                               ; preds = %68, %63
  %71 = load ptr, ptr %4, align 8
  %72 = load ptr, ptr %7, align 8
  %73 = getelementptr inbounds %struct.png_unknown_chunk_t, ptr %72, i32 0, i32 0
  %74 = getelementptr inbounds [5 x i8], ptr %73, i64 0, i64 0
  %75 = load ptr, ptr %7, align 8
  %76 = getelementptr inbounds %struct.png_unknown_chunk_t, ptr %75, i32 0, i32 1
  %77 = load ptr, ptr %76, align 8
  %78 = load ptr, ptr %7, align 8
  %79 = getelementptr inbounds %struct.png_unknown_chunk_t, ptr %78, i32 0, i32 2
  %80 = load i64, ptr %79, align 8
  call void @png_write_chunk(ptr noundef %71, ptr noundef %74, ptr noundef %77, i64 noundef %80)
  br label %81

81:                                               ; preds = %70, %58, %55, %36
  br label %82

82:                                               ; preds = %81, %28
  br label %83

83:                                               ; preds = %82
  %84 = load ptr, ptr %7, align 8
  %85 = getelementptr inbounds %struct.png_unknown_chunk_t, ptr %84, i32 1
  store ptr %85, ptr %7, align 8
  br label %17, !llvm.loop !4

86:                                               ; preds = %17
  br label %87

87:                                               ; preds = %86, %3
  ret void
}

; Function Attrs: nounwind uwtable
define void @png_write_info_before_PLTE(ptr noalias noundef %0, ptr noalias noundef %1) #0 {
  %3 = alloca ptr, align 8
  %4 = alloca ptr, align 8
  store ptr %0, ptr %3, align 8
  store ptr %1, ptr %4, align 8
  %5 = load ptr, ptr %3, align 8
  %6 = icmp eq ptr %5, null
  br i1 %6, label %10, label %7

7:                                                ; preds = %2
  %8 = load ptr, ptr %4, align 8
  %9 = icmp eq ptr %8, null
  br i1 %9, label %10, label %11

10:                                               ; preds = %7, %2
  br label %188

11:                                               ; preds = %7
  %12 = load ptr, ptr %3, align 8
  %13 = getelementptr inbounds %struct.png_struct_def, ptr %12, i32 0, i32 15
  %14 = load i32, ptr %13, align 4
  %15 = and i32 %14, 1024
  %16 = icmp eq i32 %15, 0
  br i1 %16, label %17, label %188

17:                                               ; preds = %11
  %18 = load ptr, ptr %3, align 8
  call void @png_write_sig(ptr noundef %18)
  %19 = load ptr, ptr %3, align 8
  %20 = getelementptr inbounds %struct.png_struct_def, ptr %19, i32 0, i32 15
  %21 = load i32, ptr %20, align 4
  %22 = and i32 %21, 4096
  %23 = icmp ne i32 %22, 0
  br i1 %23, label %24, label %33

24:                                               ; preds = %17
  %25 = load ptr, ptr %3, align 8
  %26 = getelementptr inbounds %struct.png_struct_def, ptr %25, i32 0, i32 123
  %27 = load i32, ptr %26, align 8
  %28 = icmp ne i32 %27, 0
  br i1 %28, label %29, label %33

29:                                               ; preds = %24
  %30 = load ptr, ptr %3, align 8
  call void @png_warning(ptr noundef %30, ptr noundef @.str)
  %31 = load ptr, ptr %3, align 8
  %32 = getelementptr inbounds %struct.png_struct_def, ptr %31, i32 0, i32 123
  store i32 0, ptr %32, align 8
  br label %33

33:                                               ; preds = %29, %24, %17
  %34 = load ptr, ptr %3, align 8
  %35 = load ptr, ptr %4, align 8
  %36 = getelementptr inbounds %struct.png_info_def, ptr %35, i32 0, i32 0
  %37 = load i32, ptr %36, align 8
  %38 = load ptr, ptr %4, align 8
  %39 = getelementptr inbounds %struct.png_info_def, ptr %38, i32 0, i32 1
  %40 = load i32, ptr %39, align 4
  %41 = load ptr, ptr %4, align 8
  %42 = getelementptr inbounds %struct.png_info_def, ptr %41, i32 0, i32 7
  %43 = load i8, ptr %42, align 4
  %44 = zext i8 %43 to i32
  %45 = load ptr, ptr %4, align 8
  %46 = getelementptr inbounds %struct.png_info_def, ptr %45, i32 0, i32 8
  %47 = load i8, ptr %46, align 1
  %48 = zext i8 %47 to i32
  %49 = load ptr, ptr %4, align 8
  %50 = getelementptr inbounds %struct.png_info_def, ptr %49, i32 0, i32 9
  %51 = load i8, ptr %50, align 2
  %52 = zext i8 %51 to i32
  %53 = load ptr, ptr %4, align 8
  %54 = getelementptr inbounds %struct.png_info_def, ptr %53, i32 0, i32 10
  %55 = load i8, ptr %54, align 1
  %56 = zext i8 %55 to i32
  %57 = load ptr, ptr %4, align 8
  %58 = getelementptr inbounds %struct.png_info_def, ptr %57, i32 0, i32 11
  %59 = load i8, ptr %58, align 8
  %60 = zext i8 %59 to i32
  call void @png_write_IHDR(ptr noundef %34, i32 noundef %37, i32 noundef %40, i32 noundef %44, i32 noundef %48, i32 noundef %52, i32 noundef %56, i32 noundef %60)
  %61 = load ptr, ptr %4, align 8
  %62 = getelementptr inbounds %struct.png_info_def, ptr %61, i32 0, i32 16
  %63 = getelementptr inbounds %struct.png_colorspace, ptr %62, i32 0, i32 4
  %64 = load i16, ptr %63, align 2
  %65 = zext i16 %64 to i32
  %66 = and i32 %65, 32768
  %67 = icmp eq i32 %66, 0
  br i1 %67, label %68, label %88

68:                                               ; preds = %33
  %69 = load ptr, ptr %4, align 8
  %70 = getelementptr inbounds %struct.png_info_def, ptr %69, i32 0, i32 16
  %71 = getelementptr inbounds %struct.png_colorspace, ptr %70, i32 0, i32 4
  %72 = load i16, ptr %71, align 2
  %73 = zext i16 %72 to i32
  %74 = and i32 %73, 8
  %75 = icmp ne i32 %74, 0
  br i1 %75, label %76, label %88

76:                                               ; preds = %68
  %77 = load ptr, ptr %4, align 8
  %78 = getelementptr inbounds %struct.png_info_def, ptr %77, i32 0, i32 2
  %79 = load i32, ptr %78, align 8
  %80 = and i32 %79, 1
  %81 = icmp ne i32 %80, 0
  br i1 %81, label %82, label %88

82:                                               ; preds = %76
  %83 = load ptr, ptr %3, align 8
  %84 = load ptr, ptr %4, align 8
  %85 = getelementptr inbounds %struct.png_info_def, ptr %84, i32 0, i32 16
  %86 = getelementptr inbounds %struct.png_colorspace, ptr %85, i32 0, i32 0
  %87 = load i32, ptr %86, align 4
  call void @png_write_gAMA_fixed(ptr noundef %83, i32 noundef %87)
  br label %88

88:                                               ; preds = %82, %76, %68, %33
  %89 = load ptr, ptr %4, align 8
  %90 = getelementptr inbounds %struct.png_info_def, ptr %89, i32 0, i32 16
  %91 = getelementptr inbounds %struct.png_colorspace, ptr %90, i32 0, i32 4
  %92 = load i16, ptr %91, align 2
  %93 = zext i16 %92 to i32
  %94 = and i32 %93, 32768
  %95 = icmp eq i32 %94, 0
  br i1 %95, label %96, label %118

96:                                               ; preds = %88
  %97 = load ptr, ptr %4, align 8
  %98 = getelementptr inbounds %struct.png_info_def, ptr %97, i32 0, i32 2
  %99 = load i32, ptr %98, align 8
  %100 = and i32 %99, 4096
  %101 = icmp ne i32 %100, 0
  br i1 %101, label %102, label %118

102:                                              ; preds = %96
  %103 = load ptr, ptr %4, align 8
  %104 = getelementptr inbounds %struct.png_info_def, ptr %103, i32 0, i32 2
  %105 = load i32, ptr %104, align 8
  %106 = and i32 %105, 2048
  %107 = icmp ne i32 %106, 0
  br i1 %107, label %108, label %110

108:                                              ; preds = %102
  %109 = load ptr, ptr %3, align 8
  call void @png_app_warning(ptr noundef %109, ptr noundef @.str.1)
  br label %110

110:                                              ; preds = %108, %102
  %111 = load ptr, ptr %3, align 8
  %112 = load ptr, ptr %4, align 8
  %113 = getelementptr inbounds %struct.png_info_def, ptr %112, i32 0, i32 17
  %114 = load ptr, ptr %113, align 8
  %115 = load ptr, ptr %4, align 8
  %116 = getelementptr inbounds %struct.png_info_def, ptr %115, i32 0, i32 18
  %117 = load ptr, ptr %116, align 8
  call void @png_write_iCCP(ptr noundef %111, ptr noundef %114, ptr noundef %117)
  br label %140

118:                                              ; preds = %96, %88
  %119 = load ptr, ptr %4, align 8
  %120 = getelementptr inbounds %struct.png_info_def, ptr %119, i32 0, i32 16
  %121 = getelementptr inbounds %struct.png_colorspace, ptr %120, i32 0, i32 4
  %122 = load i16, ptr %121, align 2
  %123 = zext i16 %122 to i32
  %124 = and i32 %123, 32768
  %125 = icmp eq i32 %124, 0
  br i1 %125, label %126, label %139

126:                                              ; preds = %118
  %127 = load ptr, ptr %4, align 8
  %128 = getelementptr inbounds %struct.png_info_def, ptr %127, i32 0, i32 2
  %129 = load i32, ptr %128, align 8
  %130 = and i32 %129, 2048
  %131 = icmp ne i32 %130, 0
  br i1 %131, label %132, label %139

132:                                              ; preds = %126
  %133 = load ptr, ptr %3, align 8
  %134 = load ptr, ptr %4, align 8
  %135 = getelementptr inbounds %struct.png_info_def, ptr %134, i32 0, i32 16
  %136 = getelementptr inbounds %struct.png_colorspace, ptr %135, i32 0, i32 3
  %137 = load i16, ptr %136, align 4
  %138 = zext i16 %137 to i32
  call void @png_write_sRGB(ptr noundef %133, i32 noundef %138)
  br label %139

139:                                              ; preds = %132, %126, %118
  br label %140

140:                                              ; preds = %139, %110
  %141 = load ptr, ptr %4, align 8
  %142 = getelementptr inbounds %struct.png_info_def, ptr %141, i32 0, i32 2
  %143 = load i32, ptr %142, align 8
  %144 = and i32 %143, 2
  %145 = icmp ne i32 %144, 0
  br i1 %145, label %146, label %154

146:                                              ; preds = %140
  %147 = load ptr, ptr %3, align 8
  %148 = load ptr, ptr %4, align 8
  %149 = getelementptr inbounds %struct.png_info_def, ptr %148, i32 0, i32 24
  %150 = load ptr, ptr %4, align 8
  %151 = getelementptr inbounds %struct.png_info_def, ptr %150, i32 0, i32 8
  %152 = load i8, ptr %151, align 1
  %153 = zext i8 %152 to i32
  call void @png_write_sBIT(ptr noundef %147, ptr noundef %149, i32 noundef %153)
  br label %154

154:                                              ; preds = %146, %140
  %155 = load ptr, ptr %4, align 8
  %156 = getelementptr inbounds %struct.png_info_def, ptr %155, i32 0, i32 16
  %157 = getelementptr inbounds %struct.png_colorspace, ptr %156, i32 0, i32 4
  %158 = load i16, ptr %157, align 2
  %159 = zext i16 %158 to i32
  %160 = and i32 %159, 32768
  %161 = icmp eq i32 %160, 0
  br i1 %161, label %162, label %181

162:                                              ; preds = %154
  %163 = load ptr, ptr %4, align 8
  %164 = getelementptr inbounds %struct.png_info_def, ptr %163, i32 0, i32 16
  %165 = getelementptr inbounds %struct.png_colorspace, ptr %164, i32 0, i32 4
  %166 = load i16, ptr %165, align 2
  %167 = zext i16 %166 to i32
  %168 = and i32 %167, 16
  %169 = icmp ne i32 %168, 0
  br i1 %169, label %170, label %181

170:                                              ; preds = %162
  %171 = load ptr, ptr %4, align 8
  %172 = getelementptr inbounds %struct.png_info_def, ptr %171, i32 0, i32 2
  %173 = load i32, ptr %172, align 8
  %174 = and i32 %173, 4
  %175 = icmp ne i32 %174, 0
  br i1 %175, label %176, label %181

176:                                              ; preds = %170
  %177 = load ptr, ptr %3, align 8
  %178 = load ptr, ptr %4, align 8
  %179 = getelementptr inbounds %struct.png_info_def, ptr %178, i32 0, i32 16
  %180 = getelementptr inbounds %struct.png_colorspace, ptr %179, i32 0, i32 1
  call void @png_write_cHRM_fixed(ptr noundef %177, ptr noundef %180)
  br label %181

181:                                              ; preds = %176, %170, %162, %154
  %182 = load ptr, ptr %3, align 8
  %183 = load ptr, ptr %4, align 8
  call void @write_unknown_chunks(ptr noundef %182, ptr noundef %183, i32 noundef 1)
  %184 = load ptr, ptr %3, align 8
  %185 = getelementptr inbounds %struct.png_struct_def, ptr %184, i32 0, i32 15
  %186 = load i32, ptr %185, align 4
  %187 = or i32 %186, 1024
  store i32 %187, ptr %185, align 4
  br label %188

188:                                              ; preds = %181, %11, %10
  ret void
}