; Function Attrs: nounwind uwtable
define void @png_write_info_before_PLTE(ptr noalias noundef %0, ptr noalias noundef %1) local_unnamed_addr #0 {
  %3 = icmp eq ptr %0, null
  %4 = icmp eq ptr %1, null
  %or.cond = or i1 %3, %4
  br i1 %or.cond, label %121, label %5

5:                                                ; preds = %2
  %6 = getelementptr inbounds i8, ptr %0, i64 300
  %7 = load i32, ptr %6, align 4
  %8 = and i32 %7, 1024
  %9 = icmp eq i32 %8, 0
  br i1 %9, label %10, label %121

10:                                               ; preds = %5
  tail call void @png_write_sig(ptr noundef nonnull %0) #15
  %11 = load i32, ptr %6, align 4
  %12 = and i32 %11, 4096
  %.not = icmp eq i32 %12, 0
  br i1 %.not, label %17, label %13

13:                                               ; preds = %10
  %14 = getelementptr inbounds i8, ptr %0, i64 992
  %15 = load i32, ptr %14, align 8
  %.not46 = icmp eq i32 %15, 0
  br i1 %.not46, label %17, label %16

16:                                               ; preds = %13
  tail call void @png_warning(ptr noundef nonnull %0, ptr noundef nonnull @.str) #15
  store i32 0, ptr %14, align 8
  br label %17

17:                                               ; preds = %16, %13, %10
  %18 = load i32, ptr %1, align 8
  %19 = getelementptr inbounds i8, ptr %1, i64 4
  %20 = load i32, ptr %19, align 4
  %21 = getelementptr inbounds i8, ptr %1, i64 36
  %22 = load i8, ptr %21, align 4
  %23 = zext i8 %22 to i32
  %24 = getelementptr inbounds i8, ptr %1, i64 37
  %25 = load i8, ptr %24, align 1
  %26 = zext i8 %25 to i32
  %27 = getelementptr inbounds i8, ptr %1, i64 38
  %28 = load i8, ptr %27, align 2
  %29 = zext i8 %28 to i32
  %30 = getelementptr inbounds i8, ptr %1, i64 39
  %31 = load i8, ptr %30, align 1
  %32 = zext i8 %31 to i32
  %33 = getelementptr inbounds i8, ptr %1, i64 40
  %34 = load i8, ptr %33, align 8
  %35 = zext i8 %34 to i32
  tail call void @png_write_IHDR(ptr noundef nonnull %0, i32 noundef %18, i32 noundef %20, i32 noundef %23, i32 noundef %26, i32 noundef %29, i32 noundef %32, i32 noundef %35) #15
  %36 = getelementptr inbounds i8, ptr %1, i64 52
  %37 = getelementptr inbounds i8, ptr %1, i64 126
  %38 = load i16, ptr %37, align 2
  %39 = and i16 %38, -32760
  %or.cond55.not = icmp eq i16 %39, 8
  br i1 %or.cond55.not, label %40, label %thread-pre-split

40:                                               ; preds = %17
  %41 = getelementptr inbounds i8, ptr %1, i64 8
  %42 = load i32, ptr %41, align 8
  %43 = and i32 %42, 1
  %.not48 = icmp eq i32 %43, 0
  br i1 %.not48, label %thread-pre-split.thread, label %44

44:                                               ; preds = %40
  %45 = load i32, ptr %36, align 4
  tail call void @png_write_gAMA_fixed(ptr noundef nonnull %0, i32 noundef %45) #15
  %.pr.pre = load i16, ptr %37, align 2
  br label %thread-pre-split

thread-pre-split:                                 ; preds = %44, %17
  %46 = phi i16 [ %38, %17 ], [ %.pr.pre, %44 ]
  %47 = icmp sgt i16 %46, -1
  br i1 %47, label %thread-pre-split.thread, label %64

thread-pre-split.thread:                          ; preds = %40, %thread-pre-split
  %48 = getelementptr inbounds i8, ptr %1, i64 8
  %49 = load i32, ptr %48, align 8
  %50 = and i32 %49, 4096
  %.not49 = icmp eq i32 %50, 0
  %51 = and i32 %49, 2048
  %.not50 = icmp eq i32 %51, 0
  br i1 %.not49, label %59, label %52

52:                                               ; preds = %thread-pre-split.thread
  br i1 %.not50, label %54, label %53

53:                                               ; preds = %52
  tail call void @png_app_warning(ptr noundef nonnull %0, ptr noundef nonnull @.str.1) #15
  br label %54

54:                                               ; preds = %53, %52
  %55 = getelementptr inbounds i8, ptr %1, i64 128
  %56 = load ptr, ptr %55, align 8
  %57 = getelementptr inbounds i8, ptr %1, i64 136
  %58 = load ptr, ptr %57, align 8
  tail call void @png_write_iCCP(ptr noundef nonnull %0, ptr noundef %56, ptr noundef %58) #15
  br label %64

59:                                               ; preds = %thread-pre-split.thread
  br i1 %.not50, label %64, label %60

60:                                               ; preds = %59
  %61 = getelementptr inbounds i8, ptr %1, i64 124
  %62 = load i16, ptr %61, align 4
  %63 = zext i16 %62 to i32
  tail call void @png_write_sRGB(ptr noundef nonnull %0, i32 noundef %63) #15
  br label %64

64:                                               ; preds = %thread-pre-split, %59, %60, %54
  %65 = getelementptr inbounds i8, ptr %1, i64 8
  %66 = load i32, ptr %65, align 8
  %67 = and i32 %66, 2
  %.not52 = icmp eq i32 %67, 0
  br i1 %.not52, label %72, label %68

68:                                               ; preds = %64
  %69 = getelementptr inbounds i8, ptr %1, i64 176
  %70 = load i8, ptr %24, align 1
  %71 = zext i8 %70 to i32
  tail call void @png_write_sBIT(ptr noundef nonnull %0, ptr noundef nonnull %69, i32 noundef %71) #15
  br label %72

72:                                               ; preds = %68, %64
  %73 = load i16, ptr %37, align 2
  %74 = and i16 %73, -32752
  %or.cond56.not = icmp eq i16 %74, 16
  br i1 %or.cond56.not, label %75, label %80

75:                                               ; preds = %72
  %76 = load i32, ptr %65, align 8
  %77 = and i32 %76, 4
  %.not54 = icmp eq i32 %77, 0
  br i1 %.not54, label %80, label %78

78:                                               ; preds = %75
  %79 = getelementptr inbounds i8, ptr %1, i64 56
  tail call void @png_write_cHRM_fixed(ptr noundef nonnull %0, ptr noundef nonnull %79) #15
  br label %80

80:                                               ; preds = %78, %75, %72
  tail call void @llvm.experimental.noalias.scope.decl(metadata !4)
  tail call void @llvm.experimental.noalias.scope.decl(metadata !7)
  %81 = getelementptr inbounds i8, ptr %1, i64 312
  %82 = load i32, ptr %81, align 8, !alias.scope !7, !noalias !4
  %.not.i = icmp eq i32 %82, 0
  br i1 %.not.i, label %write_unknown_chunks.exit, label %83

83:                                               ; preds = %80
  %84 = getelementptr inbounds i8, ptr %1, i64 304
  %85 = load ptr, ptr %84, align 8, !alias.scope !7, !noalias !4
  %86 = sext i32 %82 to i64
  %87 = getelementptr inbounds %struct.png_unknown_chunk_t, ptr %85, i64 %86
  %88 = icmp sgt i32 %82, 0
  br i1 %88, label %.lr.ph.i, label %write_unknown_chunks.exit

.lr.ph.i:                                         ; preds = %83
  %89 = getelementptr inbounds i8, ptr %0, i64 960
  br label %90

90:                                               ; preds = %116, %.lr.ph.i
  %.024.i = phi ptr [ %85, %.lr.ph.i ], [ %117, %116 ]
  %91 = getelementptr inbounds i8, ptr %.024.i, i64 24
  %92 = load i8, ptr %91, align 8, !noalias !7
  %93 = and i8 %92, 1
  %.not22.i = icmp eq i8 %93, 0
  br i1 %.not22.i, label %116, label %94

94:                                               ; preds = %90
  %95 = tail call i32 @png_handle_as_unknown(ptr noundef %0, ptr noundef nonnull %.024.i) #15, !noalias !7
  %.not23.i = icmp eq i32 %95, 1
  br i1 %.not23.i, label %116, label %96

96:                                               ; preds = %94
  %97 = getelementptr inbounds i8, ptr %.024.i, i64 3
  %98 = load i8, ptr %97, align 1, !noalias !7
  %99 = and i8 %98, 32
  %100 = icmp ne i8 %99, 0
  %101 = icmp eq i32 %95, 3
  %or.cond.i = or i1 %101, %100
  br i1 %or.cond.i, label %107, label %102

102:                                              ; preds = %96
  %103 = icmp eq i32 %95, 0
  br i1 %103, label %104, label %116

104:                                              ; preds = %102
  %105 = load i32, ptr %89, align 8, !alias.scope !4, !noalias !7
  %106 = icmp eq i32 %105, 3
  br i1 %106, label %107, label %116

107:                                              ; preds = %104, %96
  %108 = getelementptr inbounds i8, ptr %.024.i, i64 16
  %109 = load i64, ptr %108, align 8, !noalias !7
  %110 = icmp eq i64 %109, 0
  br i1 %110, label %111, label %112

111:                                              ; preds = %107
  tail call void @png_warning(ptr noundef %0, ptr noundef nonnull @.str.22) #15, !noalias !7
  %.pre.i = load i64, ptr %108, align 8, !noalias !7
  br label %112

112:                                              ; preds = %111, %107
  %113 = phi i64 [ %.pre.i, %111 ], [ %109, %107 ]
  %114 = getelementptr inbounds i8, ptr %.024.i, i64 8
  %115 = load ptr, ptr %114, align 8, !noalias !7
  tail call void @png_write_chunk(ptr noundef %0, ptr noundef nonnull %.024.i, ptr noundef %115, i64 noundef %113) #15, !noalias !7
  br label %116

116:                                              ; preds = %112, %104, %102, %94, %90
  %117 = getelementptr inbounds i8, ptr %.024.i, i64 32
  %118 = icmp ult ptr %117, %87
  br i1 %118, label %90, label %write_unknown_chunks.exit, !llvm.loop !9

write_unknown_chunks.exit:                        ; preds = %116, %80, %83
  %119 = load i32, ptr %6, align 4
  %120 = or i32 %119, 1024
  store i32 %120, ptr %6, align 4
  br label %121

121:                                              ; preds = %2, %write_unknown_chunks.exit, %5
  ret void
}